target datalayout = "e-m:e-p270:32:32-p271:32:32-p272:64:64-i64:64-i128:128-f80:128-n8:16:32:64-S128"
target triple = "x86_64-unknown-linux-gnu"

%class.svector = type { %class.vector.0 }
%class.vector.0 = type { ptr }
%class.automaton = type { ptr, %class.vector.382, %class.vector.382, i32, %class.uint_set, %class.svector, %class.uint_set, %class.svector, %class.svector, %class.svector }
%class.vector.382 = type { ptr }
%class.uint_set = type { %class.svector }

@.str.7 = private unnamed_addr constant [112 x i8] c"generated/home/dtcxzyw/WorkSpace/Projects/compilers/llvm-opt-benchmark/bench/z3/z3/src/smt/theory_str_regex.cpp\00", align 1
@.str.10 = private unnamed_addr constant [35 x i8] c"Failed to verify: aut1 != nullptr\0A\00", align 1
@.str.11 = private unnamed_addr constant [35 x i8] c"Failed to verify: aut2 != nullptr\0A\00", align 1

; Function Attrs: mustprogress nounwind uwtable
define linkonce_odr hidden noundef i32 @_ZNK6vectorIS_IN9automatonI8sym_expr16sym_expr_managerE4moveELb1EjELb1EjE4sizeEv(ptr noundef nonnull align 8 dereferenceable(8) %this) #4 comdat align 2 {
entry:
  %retval = alloca i32, align 4
  %this.addr = alloca ptr, align 8
  store ptr %this, ptr %this.addr, align 8
  %this1 = load ptr, ptr %this.addr, align 8
  %m_data = getelementptr inbounds %class.vector.382, ptr %this1, i32 0, i32 0
  %0 = load ptr, ptr %m_data, align 8
  %cmp = icmp eq ptr %0, null
  br i1 %cmp, label %if.then, label %if.end

if.then:                                          ; preds = %entry
  store i32 0, ptr %retval, align 4
  br label %return

if.end:                                           ; preds = %entry
  %m_data2 = getelementptr inbounds %class.vector.382, ptr %this1, i32 0, i32 0
  %1 = load ptr, ptr %m_data2, align 8
  %arrayidx = getelementptr inbounds i32, ptr %1, i64 -1
  %2 = load i32, ptr %arrayidx, align 4
  store i32 %2, ptr %retval, align 4
  br label %return

return:                                           ; preds = %if.end, %if.then
  %3 = load i32, ptr %retval, align 4
  ret i32 %3
}

; Function Attrs: mustprogress nounwind uwtable
define linkonce_odr hidden noundef i32 @_ZN3smt5_qmulEjj(i32 noundef %a, i32 noundef %b) #4 comdat {
entry:
  %retval = alloca i32, align 4
  %a.addr = alloca i32, align 4
  %b.addr = alloca i32, align 4
  %result = alloca i64, align 8
  store i32 %a, ptr %a.addr, align 4
  store i32 %b, ptr %b.addr, align 4
  %0 = load i32, ptr %a.addr, align 4
  %cmp = icmp eq i32 %0, -1
  br i1 %cmp, label %if.then, label %lor.lhs.false

lor.lhs.false:                                    ; preds = %entry
  %1 = load i32, ptr %b.addr, align 4
  %cmp1 = icmp eq i32 %1, -1
  br i1 %cmp1, label %if.then, label %if.end

if.then:                                          ; preds = %lor.lhs.false, %entry
  store i32 -1, ptr %retval, align 4
  br label %return

if.end:                                           ; preds = %lor.lhs.false
  %2 = load i32, ptr %a.addr, align 4
  %conv = zext i32 %2 to i64
  %3 = load i32, ptr %b.addr, align 4
  %conv2 = zext i32 %3 to i64
  %mul = mul i64 %conv, %conv2
  store i64 %mul, ptr %result, align 8
  %4 = load i64, ptr %result, align 8
  %cmp3 = icmp ugt i64 %4, 4294967295
  br i1 %cmp3, label %if.then4, label %if.end5

if.then4:                                         ; preds = %if.end
  store i32 -1, ptr %retval, align 4
  br label %return

if.end5:                                          ; preds = %if.end
  %5 = load i64, ptr %result, align 8
  %conv6 = trunc i64 %5 to i32
  store i32 %conv6, ptr %retval, align 4
  br label %return

return:                                           ; preds = %if.end5, %if.then4, %if.then
  %6 = load i32, ptr %retval, align 4
  ret i32 %6
}

; Function Attrs: mustprogress nounwind uwtable
define linkonce_odr hidden noundef i32 @_ZNK9automatonI8sym_expr16sym_expr_managerE10num_statesEv(ptr noundef nonnull align 8 dereferenceable(80) %this) #4 comdat align 2 {
entry:
  %this.addr = alloca ptr, align 8
  store ptr %this, ptr %this.addr, align 8
  %this1 = load ptr, ptr %this.addr, align 8
  %m_delta = getelementptr inbounds %class.automaton, ptr %this1, i32 0, i32 1
  %call = call noundef i32 @_ZNK6vectorIS_IN9automatonI8sym_expr16sym_expr_managerE4moveELb1EjELb1EjE4sizeEv(ptr noundef nonnull align 8 dereferenceable(8) %m_delta)
  ret i32 %call
}

; Function Attrs: mustprogress uwtable
define hidden noundef i32 @_ZN3smt10theory_str41estimate_automata_intersection_difficultyEP9automatonI8sym_expr16sym_expr_managerES5_(ptr noundef nonnull align 8 dereferenceable(1800) %this, ptr noundef %aut1, ptr noundef %aut2) #5 align 2 {
entry:
  %this.addr = alloca ptr, align 8
  %aut1.addr = alloca ptr, align 8
  %aut2.addr = alloca ptr, align 8
  store ptr %this, ptr %this.addr, align 8
  store ptr %aut1, ptr %aut1.addr, align 8
  store ptr %aut2, ptr %aut2.addr, align 8
  %0 = load ptr, ptr %aut1.addr, align 8
  %cmp = icmp ne ptr %0, null
  br i1 %cmp, label %if.end, label %if.then

if.then:                                          ; preds = %entry
  call void @_Z26notify_assertion_violationPKciS0_(ptr noundef @.str.7, i32 noundef 785, ptr noundef @.str.10)
  call void @exit(i32 noundef 114) #14
  unreachable

if.end:                                           ; preds = %entry
  %1 = load ptr, ptr %aut2.addr, align 8
  %cmp2 = icmp ne ptr %1, null
  br i1 %cmp2, label %if.end4, label %if.then3

if.then3:                                         ; preds = %if.end
  call void @_Z26notify_assertion_violationPKciS0_(ptr noundef @.str.7, i32 noundef 786, ptr noundef @.str.11)
  call void @exit(i32 noundef 114) #14
  unreachable

if.end4:                                          ; preds = %if.end
  %2 = load ptr, ptr %aut1.addr, align 8
  %call = call noundef i32 @_ZNK9automatonI8sym_expr16sym_expr_managerE10num_statesEv(ptr noundef nonnull align 8 dereferenceable(80) %2)
  %3 = load ptr, ptr %aut2.addr, align 8
  %call5 = call noundef i32 @_ZNK9automatonI8sym_expr16sym_expr_managerE10num_statesEv(ptr noundef nonnull align 8 dereferenceable(80) %3)
  %call6 = call noundef i32 @_ZN3smt5_qmulEjj(i32 noundef %call, i32 noundef %call5)
  ret i32 %call6
}