; Function Attrs: mustprogress uwtable
define hidden noundef i32 @_ZN3smt10theory_str41estimate_automata_intersection_difficultyEP9automatonI8sym_expr16sym_expr_managerES5_(ptr nocapture noundef nonnull readnone align 8 dereferenceable(1800) %this, ptr noundef readonly %aut1, ptr noundef readonly %aut2) local_unnamed_addr #3 align 2 {
entry:
  %cmp.not = icmp eq ptr %aut1, null
  br i1 %cmp.not, label %if.then, label %if.end

if.then:                                          ; preds = %entry
  tail call void @_Z26notify_assertion_violationPKciS0_(ptr noundef nonnull @.str.7, i32 noundef 785, ptr noundef nonnull @.str.10)
  tail call void @exit(i32 noundef 114) #17
  unreachable

if.end:                                           ; preds = %entry
  %cmp2.not = icmp eq ptr %aut2, null
  br i1 %cmp2.not, label %if.then3, label %if.end4

if.then3:                                         ; preds = %if.end
  tail call void @_Z26notify_assertion_violationPKciS0_(ptr noundef nonnull @.str.7, i32 noundef 786, ptr noundef nonnull @.str.11)
  tail call void @exit(i32 noundef 114) #17
  unreachable

if.end4:                                          ; preds = %if.end
  %m_delta.i = getelementptr inbounds i8, ptr %aut1, i64 8
  %0 = load ptr, ptr %m_delta.i, align 8
  %cmp.i.i = icmp eq ptr %0, null
  br i1 %cmp.i.i, label %_ZNK9automatonI8sym_expr16sym_expr_managerE10num_statesEv.exit, label %if.end.i.i

if.end.i.i:                                       ; preds = %if.end4
  %arrayidx.i.i = getelementptr inbounds i8, ptr %0, i64 -4
  %1 = load i32, ptr %arrayidx.i.i, align 4
  br label %_ZNK9automatonI8sym_expr16sym_expr_managerE10num_statesEv.exit

_ZNK9automatonI8sym_expr16sym_expr_managerE10num_statesEv.exit: ; preds = %if.end4, %if.end.i.i
  %retval.0.i.i = phi i32 [ %1, %if.end.i.i ], [ 0, %if.end4 ]
  %m_delta.i3 = getelementptr inbounds i8, ptr %aut2, i64 8
  %2 = load ptr, ptr %m_delta.i3, align 8
  %cmp.i.i4 = icmp eq ptr %2, null
  br i1 %cmp.i.i4, label %_ZNK9automatonI8sym_expr16sym_expr_managerE10num_statesEv.exit8, label %if.end.i.i5

if.end.i.i5:                                      ; preds = %_ZNK9automatonI8sym_expr16sym_expr_managerE10num_statesEv.exit
  %arrayidx.i.i6 = getelementptr inbounds i8, ptr %2, i64 -4
  %3 = load i32, ptr %arrayidx.i.i6, align 4
  br label %_ZNK9automatonI8sym_expr16sym_expr_managerE10num_statesEv.exit8

_ZNK9automatonI8sym_expr16sym_expr_managerE10num_statesEv.exit8: ; preds = %_ZNK9automatonI8sym_expr16sym_expr_managerE10num_statesEv.exit, %if.end.i.i5
  %retval.0.i.i7 = phi i32 [ %3, %if.end.i.i5 ], [ 0, %_ZNK9automatonI8sym_expr16sym_expr_managerE10num_statesEv.exit ]
  %cmp.i = icmp eq i32 %retval.0.i.i, -1
  %cmp1.i = icmp eq i32 %retval.0.i.i7, -1
  %or.cond.i = or i1 %cmp.i, %cmp1.i
  br i1 %or.cond.i, label %_ZN3smt5_qmulEjj.exit, label %if.end.i

if.end.i:                                         ; preds = %_ZNK9automatonI8sym_expr16sym_expr_managerE10num_statesEv.exit8
  %umul.i = tail call { i32, i1 } @llvm.umul.with.overflow.i32(i32 %retval.0.i.i, i32 %retval.0.i.i7)
  %cmp3.i = extractvalue { i32, i1 } %umul.i, 1
  %umul.value.i = extractvalue { i32, i1 } %umul.i, 0
  %spec.select.i = select i1 %cmp3.i, i32 -1, i32 %umul.value.i
  br label %_ZN3smt5_qmulEjj.exit

_ZN3smt5_qmulEjj.exit:                            ; preds = %_ZNK9automatonI8sym_expr16sym_expr_managerE10num_statesEv.exit8, %if.end.i
  %retval.0.i = phi i32 [ -1, %_ZNK9automatonI8sym_expr16sym_expr_managerE10num_statesEv.exit8 ], [ %spec.select.i, %if.end.i ]
  ret i32 %retval.0.i
}